target datalayout = "e-m:e-p270:32:32-p271:32:32-p272:64:64-i64:64-i128:128-f80:128-n8:16:32:64-S128"
target triple = "x86_64-pc-linux-gnu"

%struct.grpc_slice = type { ptr, %"union.grpc_slice::grpc_slice_data" }
%"union.grpc_slice::grpc_slice_data" = type { %"struct.grpc_slice::grpc_slice_data::grpc_slice_refcounted", [8 x i8] }
%"struct.grpc_slice::grpc_slice_data::grpc_slice_refcounted" = type { i64, ptr }
%"class.std::optional" = type { %"struct.std::_Optional_base" }
%"struct.std::_Optional_base" = type { %"struct.std::_Optional_payload" }
%"struct.std::_Optional_payload" = type { %"struct.std::_Optional_payload_base.base", [3 x i8] }
%"struct.std::_Optional_payload_base.base" = type <{ %"union.std::_Optional_payload_base<grpc_compression_algorithm>::_Storage", i8 }>
%"union.std::_Optional_payload_base<grpc_compression_algorithm>::_Storage" = type { i32 }
%"class.std::basic_string_view" = type { i64, ptr }
%"struct.grpc_slice::grpc_slice_data::grpc_slice_inlined" = type { i8, [23 x i8] }
%"struct.std::_Optional_payload_base" = type <{ %"union.std::_Optional_payload_base<grpc_compression_algorithm>::_Storage", i8, [3 x i8] }>

@_ZTISt19bad_optional_access = linkonce_odr constant { ptr, ptr, ptr } { ptr getelementptr inbounds (ptr, ptr @_ZTVN10__cxxabiv120__si_class_type_infoE, i64 2), ptr @_ZTSSt19bad_optional_access, ptr @_ZTISt9exception }, comdat, align 8
@_ZTVSt19bad_optional_access = linkonce_odr unnamed_addr constant { [5 x ptr] } { [5 x ptr] [ptr null, ptr @_ZTISt19bad_optional_access, ptr @_ZNSt9exceptionD2Ev, ptr @_ZNSt19bad_optional_accessD0Ev, ptr @_ZNKSt19bad_optional_access4whatEv] }, comdat, align 8
@_ZTVSt9exception = available_externally unnamed_addr constant { [5 x ptr] } { [5 x ptr] [ptr null, ptr @_ZTISt9exception, ptr @_ZNSt9exceptionD1Ev, ptr @_ZNSt9exceptionD0Ev, ptr @_ZNKSt9exception4whatEv] }, align 8

; Function Attrs: mustprogress nounwind uwtable
define linkonce_odr void @_ZNSt9exceptionC2Ev(ptr noundef nonnull align 8 dereferenceable(8) %0) unnamed_addr #4 comdat align 2 {
  %2 = alloca ptr, align 8
  store ptr %0, ptr %2, align 8, !tbaa !63
  %3 = load ptr, ptr %2, align 8
  store ptr getelementptr inbounds inrange(-16, 24) ({ [5 x ptr] }, ptr @_ZTVSt9exception, i32 0, i32 0, i32 2), ptr %3, align 8, !tbaa !61
  ret void
}

; Function Attrs: mustprogress nounwind uwtable
define linkonce_odr void @_ZNSt19bad_optional_accessC2Ev(ptr noundef nonnull align 8 dereferenceable(8) %0) unnamed_addr #4 comdat align 2 {
  %2 = alloca ptr, align 8
  store ptr %0, ptr %2, align 8, !tbaa !59
  %3 = load ptr, ptr %2, align 8
  call void @_ZNSt9exceptionC2Ev(ptr noundef nonnull align 8 dereferenceable(8) %3) #3
  store ptr getelementptr inbounds inrange(-16, 24) ({ [5 x ptr] }, ptr @_ZTVSt19bad_optional_access, i32 0, i32 0, i32 2), ptr %3, align 8, !tbaa !61
  ret void
}

; Function Attrs: mustprogress nounwind uwtable
define linkonce_odr noundef nonnull align 4 dereferenceable(4) ptr @_ZNSt22_Optional_payload_baseI26grpc_compression_algorithmE6_M_getEv(ptr noundef nonnull align 4 dereferenceable(5) %0) #4 comdat align 2 {
  %2 = alloca ptr, align 8
  store ptr %0, ptr %2, align 8, !tbaa !57
  %3 = load ptr, ptr %2, align 8
  %4 = getelementptr inbounds nuw %"struct.std::_Optional_payload_base", ptr %3, i32 0, i32 0
  ret ptr %4
}

; Function Attrs: inlinehint mustprogress noreturn uwtable
define linkonce_odr void @_ZSt27__throw_bad_optional_accessv() #13 comdat {
  %1 = call ptr @__cxa_allocate_exception(i64 8) #3
  call void @llvm.memset.p0.i64(ptr align 16 %1, i8 0, i64 8, i1 false)
  call void @_ZNSt19bad_optional_accessC2Ev(ptr noundef nonnull align 8 dereferenceable(8) %1) #3
  call void @__cxa_throw(ptr %1, ptr @_ZTISt19bad_optional_access, ptr @_ZNSt9exceptionD2Ev) #17
  unreachable
}

; Function Attrs: mustprogress nounwind uwtable
define linkonce_odr noundef nonnull align 4 dereferenceable(4) ptr @_ZNSt19_Optional_base_implI26grpc_compression_algorithmSt14_Optional_baseIS0_Lb1ELb1EEE6_M_getEv(ptr noundef nonnull align 1 dereferenceable(1) %0) #4 comdat align 2 {
  %2 = alloca ptr, align 8
  store ptr %0, ptr %2, align 8, !tbaa !50
  %3 = load ptr, ptr %2, align 8
  br label %4

4:                                                ; preds = %1
  br label %5

5:                                                ; preds = %4
  br label %6

6:                                                ; preds = %5
  %7 = getelementptr inbounds nuw %"struct.std::_Optional_base", ptr %3, i32 0, i32 0
  %8 = call noundef nonnull align 4 dereferenceable(4) ptr @_ZNSt22_Optional_payload_baseI26grpc_compression_algorithmE6_M_getEv(ptr noundef nonnull align 4 dereferenceable(5) %7) #3
  ret ptr %8
}

; Function Attrs: mustprogress nounwind uwtable
define linkonce_odr noundef zeroext i1 @_ZNKSt19_Optional_base_implI26grpc_compression_algorithmSt14_Optional_baseIS0_Lb1ELb1EEE13_M_is_engagedEv(ptr noundef nonnull align 1 dereferenceable(1) %0) #4 comdat align 2 {
  %2 = alloca ptr, align 8
  store ptr %0, ptr %2, align 8, !tbaa !50
  %3 = load ptr, ptr %2, align 8
  %4 = getelementptr inbounds nuw %"struct.std::_Optional_base", ptr %3, i32 0, i32 0
  %5 = getelementptr inbounds nuw %"struct.std::_Optional_payload_base", ptr %4, i32 0, i32 1
  %6 = load i8, ptr %5, align 4, !tbaa !52, !range !55, !noundef !56
  %7 = trunc i8 %6 to i1
  ret i1 %7
}

; Function Attrs: mustprogress nounwind uwtable
define linkonce_odr void @_ZNSt17basic_string_viewIcSt11char_traitsIcEEC2EPKcm(ptr noundef nonnull align 8 dereferenceable(16) %0, ptr noundef %1, i64 noundef %2) unnamed_addr #4 comdat align 2 {
  %4 = alloca ptr, align 8
  %5 = alloca ptr, align 8
  %6 = alloca i64, align 8
  store ptr %0, ptr %4, align 8, !tbaa !45
  store ptr %1, ptr %5, align 8, !tbaa !20
  store i64 %2, ptr %6, align 8, !tbaa !43
  %7 = load ptr, ptr %4, align 8
  %8 = getelementptr inbounds nuw %"class.std::basic_string_view", ptr %7, i32 0, i32 0
  %9 = load i64, ptr %6, align 8, !tbaa !43
  store i64 %9, ptr %8, align 8, !tbaa !47
  %10 = getelementptr inbounds nuw %"class.std::basic_string_view", ptr %7, i32 0, i32 1
  %11 = load ptr, ptr %5, align 8, !tbaa !20
  store ptr %11, ptr %10, align 8, !tbaa !49
  ret void
}

; Function Attrs: mustprogress uwtable
define linkonce_odr noundef nonnull align 4 dereferenceable(4) ptr @_ZNRSt8optionalI26grpc_compression_algorithmE5valueEv(ptr noundef nonnull align 4 dereferenceable(8) %0) #5 comdat align 2 {
  %2 = alloca ptr, align 8
  store ptr %0, ptr %2, align 8, !tbaa !15
  %3 = load ptr, ptr %2, align 8
  %4 = call noundef zeroext i1 @_ZNKSt19_Optional_base_implI26grpc_compression_algorithmSt14_Optional_baseIS0_Lb1ELb1EEE13_M_is_engagedEv(ptr noundef nonnull align 1 dereferenceable(1) %3) #3
  br i1 %4, label %5, label %7

5:                                                ; preds = %1
  %6 = call noundef nonnull align 4 dereferenceable(4) ptr @_ZNSt19_Optional_base_implI26grpc_compression_algorithmSt14_Optional_baseIS0_Lb1ELb1EEE6_M_getEv(ptr noundef nonnull align 1 dereferenceable(1) %3) #3
  ret ptr %6

7:                                                ; preds = %1
  call void @_ZSt27__throw_bad_optional_accessv() #17
  unreachable
}

; Function Attrs: mustprogress nounwind uwtable
define linkonce_odr noundef zeroext i1 @_ZNKSt8optionalI26grpc_compression_algorithmE9has_valueEv(ptr noundef nonnull align 4 dereferenceable(8) %0) #4 comdat align 2 {
  %2 = alloca ptr, align 8
  store ptr %0, ptr %2, align 8, !tbaa !15
  %3 = load ptr, ptr %2, align 8
  %4 = call noundef zeroext i1 @_ZNKSt19_Optional_base_implI26grpc_compression_algorithmSt14_Optional_baseIS0_Lb1ELb1EEE13_M_is_engagedEv(ptr noundef nonnull align 1 dereferenceable(1) %3) #3
  ret i1 %4
}

; Function Attrs: inlinehint mustprogress nounwind uwtable
define linkonce_odr { i64, ptr } @_ZN9grpc_core19StringViewFromSliceERK10grpc_slice(ptr noundef nonnull align 8 dereferenceable(32) %0) #7 comdat {
  %2 = alloca %"class.std::basic_string_view", align 8
  %3 = alloca ptr, align 8
  store ptr %0, ptr %3, align 8, !tbaa !9
  %4 = load ptr, ptr %3, align 8, !tbaa !9
  %5 = getelementptr inbounds nuw %struct.grpc_slice, ptr %4, i32 0, i32 0
  %6 = load ptr, ptr %5, align 8, !tbaa !11
  %7 = icmp ne ptr %6, null
  br i1 %7, label %8, label %13

8:                                                ; preds = %1
  %9 = load ptr, ptr %3, align 8, !tbaa !9
  %10 = getelementptr inbounds nuw %struct.grpc_slice, ptr %9, i32 0, i32 1
  %11 = getelementptr inbounds nuw %"struct.grpc_slice::grpc_slice_data::grpc_slice_refcounted", ptr %10, i32 0, i32 1
  %12 = load ptr, ptr %11, align 8, !tbaa !14
  br label %18

13:                                               ; preds = %1
  %14 = load ptr, ptr %3, align 8, !tbaa !9
  %15 = getelementptr inbounds nuw %struct.grpc_slice, ptr %14, i32 0, i32 1
  %16 = getelementptr inbounds nuw %"struct.grpc_slice::grpc_slice_data::grpc_slice_inlined", ptr %15, i32 0, i32 1
  %17 = getelementptr inbounds [23 x i8], ptr %16, i64 0, i64 0
  br label %18

18:                                               ; preds = %13, %8
  %19 = phi ptr [ %12, %8 ], [ %17, %13 ]
  %20 = load ptr, ptr %3, align 8, !tbaa !9
  %21 = getelementptr inbounds nuw %struct.grpc_slice, ptr %20, i32 0, i32 0
  %22 = load ptr, ptr %21, align 8, !tbaa !11
  %23 = icmp ne ptr %22, null
  br i1 %23, label %24, label %29

24:                                               ; preds = %18
  %25 = load ptr, ptr %3, align 8, !tbaa !9
  %26 = getelementptr inbounds nuw %struct.grpc_slice, ptr %25, i32 0, i32 1
  %27 = getelementptr inbounds nuw %"struct.grpc_slice::grpc_slice_data::grpc_slice_refcounted", ptr %26, i32 0, i32 0
  %28 = load i64, ptr %27, align 8, !tbaa !14
  br label %35

29:                                               ; preds = %18
  %30 = load ptr, ptr %3, align 8, !tbaa !9
  %31 = getelementptr inbounds nuw %struct.grpc_slice, ptr %30, i32 0, i32 1
  %32 = getelementptr inbounds nuw %"struct.grpc_slice::grpc_slice_data::grpc_slice_inlined", ptr %31, i32 0, i32 0
  %33 = load i8, ptr %32, align 8, !tbaa !14
  %34 = zext i8 %33 to i64
  br label %35

35:                                               ; preds = %29, %24
  %36 = phi i64 [ %28, %24 ], [ %34, %29 ]
  call void @_ZNSt17basic_string_viewIcSt11char_traitsIcEEC2EPKcm(ptr noundef nonnull align 8 dereferenceable(16) %2, ptr noundef %19, i64 noundef %36) #3
  %37 = load { i64, ptr }, ptr %2, align 8
  ret { i64, ptr } %37
}

; Function Attrs: mustprogress uwtable
define i32 @grpc_compression_algorithm_parse(ptr noundef byval(%struct.grpc_slice) align 8 %0, ptr noundef %1) #5 {
  %3 = alloca i32, align 4
  %4 = alloca ptr, align 8
  %5 = alloca %"class.std::optional", align 4
  %6 = alloca %"class.std::basic_string_view", align 8
  %7 = alloca i32, align 4
  store ptr %1, ptr %4, align 8, !tbaa !7
  call void @llvm.lifetime.start.p0(i64 8, ptr %5) #3
  %8 = call { i64, ptr } @_ZN9grpc_core19StringViewFromSliceERK10grpc_slice(ptr noundef nonnull align 8 dereferenceable(32) %0)
  %9 = getelementptr inbounds nuw { i64, ptr }, ptr %6, i32 0, i32 0
  %10 = extractvalue { i64, ptr } %8, 0
  store i64 %10, ptr %9, align 8
  %11 = getelementptr inbounds nuw { i64, ptr }, ptr %6, i32 0, i32 1
  %12 = extractvalue { i64, ptr } %8, 1
  store ptr %12, ptr %11, align 8
  %13 = getelementptr inbounds nuw { i64, ptr }, ptr %6, i32 0, i32 0
  %14 = load i64, ptr %13, align 8
  %15 = getelementptr inbounds nuw { i64, ptr }, ptr %6, i32 0, i32 1
  %16 = load ptr, ptr %15, align 8
  %17 = call i64 @_ZN9grpc_core25ParseCompressionAlgorithmESt17basic_string_viewIcSt11char_traitsIcEE(i64 %14, ptr %16)
  %18 = getelementptr inbounds nuw %"class.std::optional", ptr %5, i32 0, i32 0
  %19 = getelementptr inbounds nuw %"struct.std::_Optional_base", ptr %18, i32 0, i32 0
  store i64 %17, ptr %19, align 4
  %20 = call noundef zeroext i1 @_ZNKSt8optionalI26grpc_compression_algorithmE9has_valueEv(ptr noundef nonnull align 4 dereferenceable(8) %5) #3
  br i1 %20, label %21, label %25

21:                                               ; preds = %2
  %22 = call noundef nonnull align 4 dereferenceable(4) ptr @_ZNRSt8optionalI26grpc_compression_algorithmE5valueEv(ptr noundef nonnull align 4 dereferenceable(8) %5)
  %23 = load i32, ptr %22, align 4, !tbaa !3
  %24 = load ptr, ptr %4, align 8, !tbaa !7
  store i32 %23, ptr %24, align 4, !tbaa !3
  store i32 1, ptr %3, align 4
  store i32 1, ptr %7, align 4
  br label %26

25:                                               ; preds = %2
  store i32 0, ptr %3, align 4
  store i32 1, ptr %7, align 4
  br label %26

26:                                               ; preds = %25, %21
  call void @llvm.lifetime.end.p0(i64 8, ptr %5) #3
  %27 = load i32, ptr %3, align 4
  ret i32 %27
}