; Function Attrs: mustprogress uwtable
define range(i32 0, 2) i32 @grpc_compression_algorithm_parse(ptr noundef byval(%struct.grpc_slice) align 8 %0, ptr noundef writeonly captures(none) %1) local_unnamed_addr #4 {
  %3 = load ptr, ptr %0, align 8, !tbaa !3
  %.not.i = icmp eq ptr %3, null
  %4 = getelementptr inbounds nuw i8, ptr %0, i64 16
  %5 = load ptr, ptr %4, align 8
  %6 = getelementptr inbounds nuw i8, ptr %0, i64 9
  %7 = select i1 %.not.i, ptr %6, ptr %5
  %8 = getelementptr inbounds nuw i8, ptr %0, i64 8
  %9 = load i64, ptr %8, align 8
  %10 = and i64 %9, 255
  %11 = select i1 %.not.i, i64 %10, i64 %9
  %12 = call i64 @_ZN9grpc_core25ParseCompressionAlgorithmESt17basic_string_viewIcSt11char_traitsIcEE(i64 %11, ptr %7)
  %13 = and i64 %12, 4294967296
  %.not = icmp eq i64 %13, 0
  br i1 %.not, label %14, label %_ZNRSt8optionalI26grpc_compression_algorithmE5valueEv.exit

_ZNRSt8optionalI26grpc_compression_algorithmE5valueEv.exit: ; preds = %2
  %.sroa.0.0.extract.trunc = trunc i64 %12 to i32
  store i32 %.sroa.0.0.extract.trunc, ptr %1, align 4, !tbaa !9
  br label %14

14:                                               ; preds = %2, %_ZNRSt8optionalI26grpc_compression_algorithmE5valueEv.exit
  %.0 = phi i32 [ 1, %_ZNRSt8optionalI26grpc_compression_algorithmE5valueEv.exit ], [ 0, %2 ]
  ret i32 %.0
}